target datalayout = "e-m:e-p270:32:32-p271:32:32-p272:64:64-i64:64-i128:128-f80:128-n8:16:32:64-S128"
target triple = "x86_64-pc-linux-gnu"

%struct.H5B_shared_t = type { ptr, i32, i64, i64, i64, i64, i64, ptr, ptr, ptr }

@H5B_init_g = global i8 0, align 1
@H5_libterm_g = external global i8, align 1
@H5_H5B_shared_t_reg_free_list = internal global { i8, [3 x i8], i32, i32, [4 x i8], ptr, i64, ptr } { i8 0, [3 x i8] zeroinitializer, i32 0, i32 0, [4 x i8] zeroinitializer, ptr @.str.60, i64 80, ptr null }, align 8
@H5_page_blk_free_list = internal global { i8, [3 x i8], i32, i32, [4 x i8], i64, ptr, ptr } { i8 0, [3 x i8] zeroinitializer, i32 0, i32 0, [4 x i8] zeroinitializer, i64 0, ptr @.str.62, ptr null }, align 8
@H5_size_t_seq_free_list = internal global { { i8, [3 x i8], i32, i32, [4 x i8], i64, ptr, ptr }, i64 } { { i8, [3 x i8], i32, i32, [4 x i8], i64, ptr, ptr } { i8 0, [3 x i8] zeroinitializer, i32 0, i32 0, [4 x i8] zeroinitializer, i64 0, ptr @.str.64, ptr null }, i64 8 }, align 8

; Function Attrs: nounwind uwtable
define i32 @H5B_shared_free(ptr noundef %0) #0 {
  %2 = alloca ptr, align 8
  %3 = alloca ptr, align 8
  store ptr %0, ptr %2, align 8, !tbaa !10
  call void @llvm.lifetime.start.p0(i64 8, ptr %3) #6
  %4 = load ptr, ptr %2, align 8, !tbaa !10
  store ptr %4, ptr %3, align 8, !tbaa !15
  %5 = load i8, ptr @H5B_init_g, align 1, !tbaa !19, !range !21, !noundef !22
  %6 = trunc i8 %5 to i1
  br i1 %6, label %11, label %7

7:                                                ; preds = %1
  %8 = load i8, ptr @H5_libterm_g, align 1, !tbaa !19, !range !21, !noundef !22
  %9 = trunc i8 %8 to i1
  %10 = xor i1 %9, true
  br label %11

11:                                               ; preds = %7, %1
  %12 = phi i1 [ true, %1 ], [ %10, %7 ]
  %13 = xor i1 %12, true
  %14 = xor i1 %13, true
  %15 = zext i1 %14 to i32
  %16 = sext i32 %15 to i64
  %17 = call i64 @llvm.expect.i64(i64 %16, i64 1)
  %18 = icmp ne i64 %17, 0
  br i1 %18, label %19, label %34

19:                                               ; preds = %11
  %20 = load ptr, ptr %3, align 8, !tbaa !15
  %21 = getelementptr inbounds nuw %struct.H5B_shared_t, ptr %20, i32 0, i32 7
  %22 = load ptr, ptr %21, align 8, !tbaa !88
  %23 = call ptr @H5FL_blk_free(ptr noundef @H5_page_blk_free_list, ptr noundef %22)
  %24 = load ptr, ptr %3, align 8, !tbaa !15
  %25 = getelementptr inbounds nuw %struct.H5B_shared_t, ptr %24, i32 0, i32 7
  store ptr %23, ptr %25, align 8, !tbaa !88
  %26 = load ptr, ptr %3, align 8, !tbaa !15
  %27 = getelementptr inbounds nuw %struct.H5B_shared_t, ptr %26, i32 0, i32 8
  %28 = load ptr, ptr %27, align 8, !tbaa !59
  %29 = call ptr @H5FL_seq_free(ptr noundef @H5_size_t_seq_free_list, ptr noundef %28)
  %30 = load ptr, ptr %3, align 8, !tbaa !15
  %31 = getelementptr inbounds nuw %struct.H5B_shared_t, ptr %30, i32 0, i32 8
  store ptr %29, ptr %31, align 8, !tbaa !59
  %32 = load ptr, ptr %3, align 8, !tbaa !15
  %33 = call ptr @H5FL_reg_free(ptr noundef @H5_H5B_shared_t_reg_free_list, ptr noundef %32)
  store ptr %33, ptr %3, align 8, !tbaa !15
  br label %34

34:                                               ; preds = %19, %11
  call void @llvm.lifetime.end.p0(i64 8, ptr %3) #6
  ret i32 0
}